target datalayout = "e-m:e-p270:32:32-p271:32:32-p272:64:64-i64:64-i128:128-f80:128-n8:16:32:64-S128"
target triple = "x86_64-pc-linux-gnu"

%struct.option = type { i32, i32, ptr, ptr, ptr, ptr, i32, ptr, i64, ptr, i64, ptr }

@builtin_fsmonitor__daemon_usage = internal constant [5 x ptr] [ptr @.str.1, ptr @.str.2, ptr @.str.3, ptr @.str.4, ptr null], align 16
@.str = private unnamed_addr constant [49 x i8] c"fsmonitor--daemon not supported on this platform\00", align 1
@.str.1 = private unnamed_addr constant [40 x i8] c"git fsmonitor--daemon start [<options>]\00", align 1
@.str.2 = private unnamed_addr constant [38 x i8] c"git fsmonitor--daemon run [<options>]\00", align 1
@.str.3 = private unnamed_addr constant [27 x i8] c"git fsmonitor--daemon stop\00", align 1
@.str.4 = private unnamed_addr constant [29 x i8] c"git fsmonitor--daemon status\00", align 1
@.str.5 = private unnamed_addr constant [1 x i8] zeroinitializer, align 1
@git_gettext_enabled = external global i32, align 4

; Function Attrs: nounwind uwtable
define dso_local i32 @cmd_fsmonitor__daemon(i32 noundef %0, ptr noundef %1, ptr noundef %2, ptr noundef %3) #0 {
  %5 = alloca i32, align 4
  %6 = alloca ptr, align 8
  %7 = alloca ptr, align 8
  %8 = alloca ptr, align 8
  %9 = alloca [1 x %struct.option], align 16
  store i32 %0, ptr %5, align 4, !tbaa !4
  store ptr %1, ptr %6, align 8, !tbaa !8
  store ptr %2, ptr %7, align 8, !tbaa !11
  store ptr %3, ptr %8, align 8, !tbaa !13
  call void @llvm.lifetime.start.p0(i64 88, ptr %9) #7
  call void @llvm.memset.p0.i64(ptr align 16 %9, i8 0, i64 88, i1 false)
  %10 = load i32, ptr %5, align 4, !tbaa !4
  %11 = load ptr, ptr %6, align 8, !tbaa !8
  %12 = getelementptr inbounds [1 x %struct.option], ptr %9, i64 0, i64 0
  call void @show_usage_with_options_if_asked(i32 noundef %10, ptr noundef %11, ptr noundef @builtin_fsmonitor__daemon_usage, ptr noundef %12)
  %13 = call ptr @_(ptr noundef @.str)
  call void (ptr, ...) @die(ptr noundef %13) #8
  unreachable
}

; Function Attrs: nocallback nofree nosync nounwind willreturn memory(argmem: readwrite)
declare void @llvm.lifetime.start.p0(i64 immarg, ptr captures(none)) #1

; Function Attrs: nocallback nofree nounwind willreturn memory(argmem: write)
declare void @llvm.memset.p0.i64(ptr writeonly captures(none), i8, i64, i1 immarg) #2

declare void @show_usage_with_options_if_asked(i32 noundef, ptr noundef, ptr noundef, ptr noundef) #3

; Function Attrs: noreturn
declare void @die(ptr noundef, ...) #4

; Function Attrs: inlinehint nounwind uwtable
define internal ptr @_(ptr noundef %0) #5 {
  %2 = alloca ptr, align 8
  %3 = alloca ptr, align 8
  store ptr %0, ptr %3, align 8, !tbaa !11
  %4 = load ptr, ptr %3, align 8, !tbaa !11
  %5 = load i8, ptr %4, align 1, !tbaa !15
  %6 = icmp ne i8 %5, 0
  br i1 %6, label %8, label %7

7:                                                ; preds = %1
  store ptr @.str.5, ptr %2, align 8
  br label %16

8:                                                ; preds = %1
  %9 = load i32, ptr @git_gettext_enabled, align 4, !tbaa !4
  %10 = icmp ne i32 %9, 0
  br i1 %10, label %13, label %11

11:                                               ; preds = %8
  %12 = load ptr, ptr %3, align 8, !tbaa !11
  store ptr %12, ptr %2, align 8
  br label %16

13:                                               ; preds = %8
  %14 = load ptr, ptr %3, align 8, !tbaa !11
  %15 = call ptr @dcgettext(ptr noundef null, ptr noundef %14, i32 noundef 5) #7
  store ptr %15, ptr %2, align 8
  br label %16

16:                                               ; preds = %13, %11, %7
  %17 = load ptr, ptr %2, align 8
  ret ptr %17
}

; Function Attrs: nounwind
declare ptr @dcgettext(ptr noundef, ptr noundef, i32 noundef) #6


!llvm.module.flags = !{!0, !1, !2, !3}

!0 = !{i32 1, !"wchar_size", i32 4}
!1 = !{i32 8, !"PIC Level", i32 2}
!2 = !{i32 7, !"PIE Level", i32 2}
!3 = !{i32 7, !"uwtable", i32 2}
!4 = !{!5, !5, i64 0}
!5 = !{!"int", !6, i64 0}
!6 = !{!"omnipotent char", !7, i64 0}
!7 = !{!"Simple C/C++ TBAA"}
!8 = !{!9, !9, i64 0}
!9 = !{!"p2 omnipotent char", !10, i64 0}
!10 = !{!"any pointer", !6, i64 0}
!11 = !{!12, !12, i64 0}
!12 = !{!"p1 omnipotent char", !10, i64 0}
!13 = !{!14, !14, i64 0}
!14 = !{!"p1 _ZTS10repository", !10, i64 0}
!15 = !{!6, !6, i64 0}
