; ModuleID = 'bench/git/original/fsmonitor--daemon.ll'
source_filename = "bench/git/original/fsmonitor--daemon.ll"
target datalayout = "e-m:e-p270:32:32-p271:32:32-p272:64:64-i64:64-i128:128-f80:128-n8:16:32:64-S128"
target triple = "x86_64-pc-linux-gnu"

%struct.option = type { i32, i32, ptr, ptr, ptr, ptr, i32, ptr, i64, ptr, i64, ptr }

@builtin_fsmonitor__daemon_usage = internal constant [5 x ptr] [ptr @.str.1, ptr @.str.2, ptr @.str.3, ptr @.str.4, ptr null], align 16
@.str = private unnamed_addr constant [49 x i8] c"fsmonitor--daemon not supported on this platform\00", align 1
@.str.1 = private unnamed_addr constant [40 x i8] c"git fsmonitor--daemon start [<options>]\00", align 1
@.str.2 = private unnamed_addr constant [38 x i8] c"git fsmonitor--daemon run [<options>]\00", align 1
@.str.3 = private unnamed_addr constant [27 x i8] c"git fsmonitor--daemon stop\00", align 1
@.str.4 = private unnamed_addr constant [29 x i8] c"git fsmonitor--daemon status\00", align 1
@git_gettext_enabled = external local_unnamed_addr global i32, align 4

; Function Attrs: noreturn nounwind uwtable
define dso_local noundef i32 @cmd_fsmonitor__daemon(i32 noundef %0, ptr noundef %1, ptr noundef readnone captures(none) %2, ptr noundef readnone captures(none) %3) local_unnamed_addr #0 {
  %5 = alloca [1 x %struct.option], align 16
  call void @llvm.lifetime.start.p0(i64 88, ptr nonnull %5) #7
  call void @llvm.memset.p0.i64(ptr noundef nonnull align 16 dereferenceable(88) %5, i8 0, i64 88, i1 false)
  call void @show_usage_with_options_if_asked(i32 noundef %0, ptr noundef %1, ptr noundef nonnull @builtin_fsmonitor__daemon_usage, ptr noundef nonnull %5) #7
  %6 = call fastcc ptr @_()
  call void (ptr, ...) @die(ptr noundef %6) #8
  unreachable
}

; Function Attrs: mustprogress nocallback nofree nosync nounwind willreturn memory(argmem: readwrite)
declare void @llvm.lifetime.start.p0(i64 immarg, ptr captures(none)) #1

; Function Attrs: mustprogress nocallback nofree nounwind willreturn memory(argmem: write)
declare void @llvm.memset.p0.i64(ptr writeonly captures(none), i8, i64, i1 immarg) #2

declare void @show_usage_with_options_if_asked(i32 noundef, ptr noundef, ptr noundef, ptr noundef) local_unnamed_addr #3

; Function Attrs: noreturn
declare void @die(ptr noundef, ...) local_unnamed_addr #4

; Function Attrs: inlinehint nounwind uwtable
define internal fastcc ptr @_() unnamed_addr #5 {
  %1 = load i32, ptr @git_gettext_enabled, align 4, !tbaa !4
  %.not = icmp eq i32 %1, 0
  br i1 %.not, label %4, label %2

2:                                                ; preds = %0
  %3 = tail call ptr @dcgettext(ptr noundef null, ptr noundef nonnull @.str, i32 noundef 5) #7
  br label %4

4:                                                ; preds = %0, %2
  %.0 = phi ptr [ %3, %2 ], [ @.str, %0 ]
  ret ptr %.0
}

; Function Attrs: nounwind
declare ptr @dcgettext(ptr noundef, ptr noundef, i32 noundef) local_unnamed_addr #6


!llvm.module.flags = !{!0, !1, !2, !3}

!0 = !{i32 1, !"wchar_size", i32 4}
!1 = !{i32 8, !"PIC Level", i32 2}
!2 = !{i32 7, !"PIE Level", i32 2}
!3 = !{i32 7, !"uwtable", i32 2}
!4 = !{!5, !5, i64 0}
!5 = !{!"int", !6, i64 0}
!6 = !{!"omnipotent char", !7, i64 0}
!7 = !{!"Simple C/C++ TBAA"}
